; ModuleID = 'source-C-CXX/28/1281.c'
source_filename = "source-C-CXX/28/1281.c"
target datalayout = "e-m:e-p270:32:32-p271:32:32-p272:64:64-i64:64-f80:128-n8:16:32:64-S128"
target triple = "x86_64-pc-linux-gnu"

@.str = private unnamed_addr constant [3 x i8] c"%d\00", align 1
@.str.1 = private unnamed_addr constant [6 x i8] c"%.3f\0A\00", align 1

; Function Attrs: nofree nounwind sspstrong uwtable
define dso_local i32 @main() local_unnamed_addr #0 {
  %1 = alloca i32, align 4
  %2 = alloca i32, align 4
  %3 = alloca [1000 x i32], align 16
  %4 = bitcast i32* %1 to i8*
  call void @llvm.lifetime.start.p0i8(i64 4, i8* nonnull %4) #4
  %5 = bitcast i32* %2 to i8*
  call void @llvm.lifetime.start.p0i8(i64 4, i8* nonnull %5) #4
  %6 = bitcast [1000 x i32]* %3 to i8*
  call void @llvm.lifetime.start.p0i8(i64 4000, i8* nonnull %6) #4
  call void @llvm.memset.p0i8.i64(i8* noundef nonnull align 16 dereferenceable(4000) %6, i8 0, i64 4000, i1 false)
  %7 = call i32 (i8*, ...) @__isoc99_scanf(i8* getelementptr inbounds ([3 x i8], [3 x i8]* @.str, i64 0, i64 0), i32* nonnull %1)
  %8 = getelementptr inbounds [1000 x i32], [1000 x i32]* %3, i64 0, i64 1
  %9 = getelementptr inbounds [1000 x i32], [1000 x i32]* %3, i64 0, i64 0
  %10 = load i32, i32* %1, align 4, !tbaa !5
  %11 = icmp sgt i32 %10, 0
  br i1 %11, label %12, label %57

12:                                               ; preds = %0, %50
  %13 = phi i32 [ %54, %50 ], [ 0, %0 ]
  %14 = phi float [ %51, %50 ], [ undef, %0 ]
  %15 = call i32 (i8*, ...) @__isoc99_scanf(i8* getelementptr inbounds ([3 x i8], [3 x i8]* @.str, i64 0, i64 0), i32* nonnull %2)
  %16 = load i32, i32* %2, align 4, !tbaa !5
  %17 = icmp slt i32 %16, 0
  br i1 %17, label %50, label %18

18:                                               ; preds = %12
  %19 = add nuw i32 %16, 1
  %20 = zext i32 %19 to i64
  br label %21

21:                                               ; preds = %18, %46
  %22 = phi i64 [ 0, %18 ], [ %48, %46 ]
  %23 = phi float [ %14, %18 ], [ %47, %46 ]
  %24 = trunc i64 %22 to i32
  switch i32 %24, label %31 [
    i32 0, label %25
    i32 1, label %26
  ]

25:                                               ; preds = %21
  store i32 1, i32* %9, align 16, !tbaa !5
  br label %46

26:                                               ; preds = %21
  store i32 2, i32* %8, align 4, !tbaa !5
  %27 = load i32, i32* %9, align 16, !tbaa !5
  %28 = sitofp i32 %27 to double
  %29 = fdiv double 2.000000e+00, %28
  %30 = fptrunc double %29 to float
  br label %46

31:                                               ; preds = %21
  %32 = add nsw i64 %22, -1
  %33 = getelementptr inbounds [1000 x i32], [1000 x i32]* %3, i64 0, i64 %32
  %34 = load i32, i32* %33, align 4, !tbaa !5
  %35 = add nsw i64 %22, -2
  %36 = getelementptr inbounds [1000 x i32], [1000 x i32]* %3, i64 0, i64 %35
  %37 = load i32, i32* %36, align 4, !tbaa !5
  %38 = add nsw i32 %37, %34
  %39 = getelementptr inbounds [1000 x i32], [1000 x i32]* %3, i64 0, i64 %22
  store i32 %38, i32* %39, align 4, !tbaa !5
  %40 = sitofp i32 %38 to double
  %41 = sitofp i32 %34 to double
  %42 = fdiv double %40, %41
  %43 = fpext float %23 to double
  %44 = fadd double %42, %43
  %45 = fptrunc double %44 to float
  br label %46

46:                                               ; preds = %26, %31, %25
  %47 = phi float [ %23, %25 ], [ %30, %26 ], [ %45, %31 ]
  %48 = add nuw nsw i64 %22, 1
  %49 = icmp eq i64 %48, %20
  br i1 %49, label %50, label %21, !llvm.loop !9

50:                                               ; preds = %46, %12
  %51 = phi float [ %14, %12 ], [ %47, %46 ]
  %52 = fpext float %51 to double
  %53 = call i32 (i8*, ...) @printf(i8* nonnull dereferenceable(1) getelementptr inbounds ([6 x i8], [6 x i8]* @.str.1, i64 0, i64 0), double %52)
  %54 = add nuw nsw i32 %13, 1
  %55 = load i32, i32* %1, align 4, !tbaa !5
  %56 = icmp slt i32 %54, %55
  br i1 %56, label %12, label %57, !llvm.loop !11

57:                                               ; preds = %50, %0
  call void @llvm.lifetime.end.p0i8(i64 4000, i8* nonnull %6) #4
  call void @llvm.lifetime.end.p0i8(i64 4, i8* nonnull %5) #4
  call void @llvm.lifetime.end.p0i8(i64 4, i8* nonnull %4) #4
  ret i32 0
}

; Function Attrs: argmemonly mustprogress nofree nosync nounwind willreturn
declare void @llvm.lifetime.start.p0i8(i64 immarg, i8* nocapture) #1

; Function Attrs: argmemonly mustprogress nofree nounwind willreturn writeonly
declare void @llvm.memset.p0i8.i64(i8* nocapture writeonly, i8, i64, i1 immarg) #2

; Function Attrs: nofree nounwind
declare noundef i32 @__isoc99_scanf(i8* nocapture noundef readonly, ...) local_unnamed_addr #3

; Function Attrs: nofree nounwind
declare noundef i32 @printf(i8* nocapture noundef readonly, ...) local_unnamed_addr #3

; Function Attrs: argmemonly mustprogress nofree nosync nounwind willreturn
declare void @llvm.lifetime.end.p0i8(i64 immarg, i8* nocapture) #1


!llvm.module.flags = !{!0, !1, !2, !3}
!llvm.ident = !{!4}

!0 = !{i32 1, !"wchar_size", i32 4}
!1 = !{i32 7, !"PIC Level", i32 2}
!2 = !{i32 7, !"PIE Level", i32 2}
!3 = !{i32 7, !"uwtable", i32 1}
!4 = !{!"clang version 13.0.0"}
!5 = !{!6, !6, i64 0}
!6 = !{!"int", !7, i64 0}
!7 = !{!"omnipotent char", !8, i64 0}
!8 = !{!"Simple C/C++ TBAA"}
!9 = distinct !{!9, !10}
!10 = !{!"llvm.loop.mustprogress"}
!11 = distinct !{!11, !10}
